target datalayout = "e-m:e-p270:32:32-p271:32:32-p272:64:64-i64:64-i128:128-f80:128-n8:16:32:64-S128"
target triple = "x86_64-pc-linux-gnu"

%struct.epan_column_info = type { ptr, i32, ptr, ptr, ptr, %struct.col_expr_t, i32, ptr }
%struct.col_expr_t = type { ptr, ptr }
%struct.col_item_t = type { i32, ptr, ptr, ptr, i32, ptr, ptr, ptr, ptr, i32, i32, i32 }
%struct.__va_list_tag = type { i32, i32, ptr, ptr }

@.str.2 = private unnamed_addr constant [7 x i8] c"(null)\00", align 1

; Function Attrs: nounwind uwtable
define i32 @col_get_writable(ptr noundef %0, i32 noundef %1) #0 {
  %3 = alloca i32, align 4
  %4 = alloca ptr, align 8
  %5 = alloca i32, align 4
  %6 = alloca i32, align 4
  %7 = alloca ptr, align 8
  store ptr %0, ptr %4, align 8
  store i32 %1, ptr %5, align 4
  %8 = load ptr, ptr %4, align 8
  %9 = icmp eq ptr %8, null
  br i1 %9, label %10, label %11

10:                                               ; preds = %2
  store i32 0, ptr %3, align 4
  br label %75

11:                                               ; preds = %2
  %12 = load i32, ptr %5, align 4
  %13 = icmp eq i32 %12, -1
  br i1 %13, label %19, label %14

14:                                               ; preds = %11
  %15 = load ptr, ptr %4, align 8
  %16 = getelementptr inbounds %struct.epan_column_info, ptr %15, i32 0, i32 6
  %17 = load i32, ptr %16, align 8
  %18 = icmp eq i32 %17, 0
  br i1 %18, label %19, label %23

19:                                               ; preds = %14, %11
  %20 = load ptr, ptr %4, align 8
  %21 = getelementptr inbounds %struct.epan_column_info, ptr %20, i32 0, i32 6
  %22 = load i32, ptr %21, align 8
  store i32 %22, ptr %3, align 4
  br label %75

23:                                               ; preds = %14
  %24 = load ptr, ptr %4, align 8
  %25 = getelementptr inbounds %struct.epan_column_info, ptr %24, i32 0, i32 3
  %26 = load ptr, ptr %25, align 8
  %27 = load i32, ptr %5, align 4
  %28 = sext i32 %27 to i64
  %29 = getelementptr i32, ptr %26, i64 %28
  %30 = load i32, ptr %29, align 4
  %31 = icmp sge i32 %30, 0
  br i1 %31, label %32, label %74

32:                                               ; preds = %23
  %33 = load ptr, ptr %4, align 8
  %34 = getelementptr inbounds %struct.epan_column_info, ptr %33, i32 0, i32 3
  %35 = load ptr, ptr %34, align 8
  %36 = load i32, ptr %5, align 4
  %37 = sext i32 %36 to i64
  %38 = getelementptr i32, ptr %35, i64 %37
  %39 = load i32, ptr %38, align 4
  store i32 %39, ptr %6, align 4
  br label %40

40:                                               ; preds = %70, %32
  %41 = load i32, ptr %6, align 4
  %42 = load ptr, ptr %4, align 8
  %43 = getelementptr inbounds %struct.epan_column_info, ptr %42, i32 0, i32 4
  %44 = load ptr, ptr %43, align 8
  %45 = load i32, ptr %5, align 4
  %46 = sext i32 %45 to i64
  %47 = getelementptr i32, ptr %44, i64 %46
  %48 = load i32, ptr %47, align 4
  %49 = icmp sle i32 %41, %48
  br i1 %49, label %50, label %73

50:                                               ; preds = %40
  %51 = load ptr, ptr %4, align 8
  %52 = getelementptr inbounds %struct.epan_column_info, ptr %51, i32 0, i32 2
  %53 = load ptr, ptr %52, align 8
  %54 = load i32, ptr %6, align 4
  %55 = sext i32 %54 to i64
  %56 = getelementptr %struct.col_item_t, ptr %53, i64 %55
  store ptr %56, ptr %7, align 8
  %57 = load ptr, ptr %7, align 8
  %58 = getelementptr inbounds %struct.col_item_t, ptr %57, i32 0, i32 1
  %59 = load ptr, ptr %58, align 8
  %60 = load i32, ptr %5, align 4
  %61 = sext i32 %60 to i64
  %62 = getelementptr i32, ptr %59, i64 %61
  %63 = load i32, ptr %62, align 4
  %64 = icmp ne i32 %63, 0
  br i1 %64, label %65, label %69

65:                                               ; preds = %50
  %66 = load ptr, ptr %7, align 8
  %67 = getelementptr inbounds %struct.col_item_t, ptr %66, i32 0, i32 10
  %68 = load i32, ptr %67, align 4
  store i32 %68, ptr %3, align 4
  br label %75

69:                                               ; preds = %50
  br label %70

70:                                               ; preds = %69
  %71 = load i32, ptr %6, align 4
  %72 = add i32 %71, 1
  store i32 %72, ptr %6, align 4
  br label %40, !llvm.loop !9

73:                                               ; preds = %40
  br label %74

74:                                               ; preds = %73, %23
  store i32 0, ptr %3, align 4
  br label %75

75:                                               ; preds = %74, %65, %19, %10
  %76 = load i32, ptr %3, align 4
  ret i32 %76
}

; Function Attrs: nounwind uwtable
define void @col_append_lstr(ptr noundef %0, i32 noundef %1, ptr noundef %2, ...) #0 {
  %4 = alloca ptr, align 8
  %5 = alloca i32, align 4
  %6 = alloca ptr, align 8
  %7 = alloca [1 x %struct.__va_list_tag], align 16
  %8 = alloca i64, align 8
  %9 = alloca i64, align 8
  %10 = alloca i32, align 4
  %11 = alloca ptr, align 8
  %12 = alloca ptr, align 8
  store ptr %0, ptr %4, align 8
  store i32 %1, ptr %5, align 4
  store ptr %2, ptr %6, align 8
  %13 = load ptr, ptr %4, align 8
  %14 = load i32, ptr %5, align 4
  %15 = call i32 @col_get_writable(ptr noundef %13, i32 noundef %14)
  %16 = icmp ne i32 %15, 0
  br i1 %16, label %17, label %26

17:                                               ; preds = %3
  %18 = load ptr, ptr %4, align 8
  %19 = getelementptr inbounds %struct.epan_column_info, ptr %18, i32 0, i32 3
  %20 = load ptr, ptr %19, align 8
  %21 = load i32, ptr %5, align 4
  %22 = sext i32 %21 to i64
  %23 = getelementptr i32, ptr %20, i64 %22
  %24 = load i32, ptr %23, align 4
  %25 = icmp sge i32 %24, 0
  br i1 %25, label %27, label %26

26:                                               ; preds = %17, %3
  br label %144

27:                                               ; preds = %17
  %28 = load i32, ptr %5, align 4
  %29 = icmp eq i32 %28, 25
  br i1 %29, label %30, label %31

30:                                               ; preds = %27
  store i64 4096, ptr %9, align 8
  br label %32

31:                                               ; preds = %27
  store i64 2048, ptr %9, align 8
  br label %32

32:                                               ; preds = %31, %30
  %33 = load ptr, ptr %4, align 8
  %34 = getelementptr inbounds %struct.epan_column_info, ptr %33, i32 0, i32 3
  %35 = load ptr, ptr %34, align 8
  %36 = load i32, ptr %5, align 4
  %37 = sext i32 %36 to i64
  %38 = getelementptr i32, ptr %35, i64 %37
  %39 = load i32, ptr %38, align 4
  store i32 %39, ptr %10, align 4
  br label %40

40:                                               ; preds = %141, %32
  %41 = load i32, ptr %10, align 4
  %42 = load ptr, ptr %4, align 8
  %43 = getelementptr inbounds %struct.epan_column_info, ptr %42, i32 0, i32 4
  %44 = load ptr, ptr %43, align 8
  %45 = load i32, ptr %5, align 4
  %46 = sext i32 %45 to i64
  %47 = getelementptr i32, ptr %44, i64 %46
  %48 = load i32, ptr %47, align 4
  %49 = icmp sle i32 %41, %48
  br i1 %49, label %50, label %144

50:                                               ; preds = %40
  %51 = load ptr, ptr %4, align 8
  %52 = getelementptr inbounds %struct.epan_column_info, ptr %51, i32 0, i32 2
  %53 = load ptr, ptr %52, align 8
  %54 = load i32, ptr %10, align 4
  %55 = sext i32 %54 to i64
  %56 = getelementptr %struct.col_item_t, ptr %53, i64 %55
  store ptr %56, ptr %12, align 8
  %57 = load ptr, ptr %12, align 8
  %58 = getelementptr inbounds %struct.col_item_t, ptr %57, i32 0, i32 1
  %59 = load ptr, ptr %58, align 8
  %60 = load i32, ptr %5, align 4
  %61 = sext i32 %60 to i64
  %62 = getelementptr i32, ptr %59, i64 %61
  %63 = load i32, ptr %62, align 4
  %64 = icmp ne i32 %63, 0
  br i1 %64, label %65, label %140

65:                                               ; preds = %50
  %66 = load ptr, ptr %12, align 8
  %67 = getelementptr inbounds %struct.col_item_t, ptr %66, i32 0, i32 7
  %68 = load ptr, ptr %67, align 8
  %69 = load ptr, ptr %12, align 8
  %70 = getelementptr inbounds %struct.col_item_t, ptr %69, i32 0, i32 8
  %71 = load ptr, ptr %70, align 8
  %72 = icmp ne ptr %68, %71
  br i1 %72, label %73, label %87

73:                                               ; preds = %65
  %74 = load ptr, ptr %12, align 8
  %75 = getelementptr inbounds %struct.col_item_t, ptr %74, i32 0, i32 8
  %76 = load ptr, ptr %75, align 8
  %77 = load ptr, ptr %12, align 8
  %78 = getelementptr inbounds %struct.col_item_t, ptr %77, i32 0, i32 7
  %79 = load ptr, ptr %78, align 8
  %80 = load i64, ptr %9, align 8
  %81 = call i64 @g_strlcpy(ptr noundef %76, ptr noundef %79, i64 noundef %80)
  %82 = load ptr, ptr %12, align 8
  %83 = getelementptr inbounds %struct.col_item_t, ptr %82, i32 0, i32 8
  %84 = load ptr, ptr %83, align 8
  %85 = load ptr, ptr %12, align 8
  %86 = getelementptr inbounds %struct.col_item_t, ptr %85, i32 0, i32 7
  store ptr %84, ptr %86, align 8
  br label %87

87:                                               ; preds = %73, %65
  %88 = load ptr, ptr %12, align 8
  %89 = getelementptr inbounds %struct.col_item_t, ptr %88, i32 0, i32 8
  %90 = load ptr, ptr %89, align 8
  %91 = call i64 @strlen(ptr noundef %90) #9
  store i64 %91, ptr %8, align 8
  %92 = load i64, ptr %8, align 8
  %93 = load i64, ptr %9, align 8
  %94 = icmp uge i64 %92, %93
  br i1 %94, label %95, label %96

95:                                               ; preds = %87
  br label %144

96:                                               ; preds = %87
  %97 = getelementptr inbounds [1 x %struct.__va_list_tag], ptr %7, i64 0, i64 0
  call void @llvm.va_start.p0(ptr %97)
  %98 = load ptr, ptr %6, align 8
  store ptr %98, ptr %11, align 8
  br label %99

99:                                               ; preds = %136, %96
  %100 = load ptr, ptr %11, align 8
  %101 = icmp eq ptr %100, null
  br i1 %101, label %102, label %103

102:                                              ; preds = %99
  store ptr @.str.2, ptr %11, align 8
  br label %103

103:                                              ; preds = %102, %99
  br label %104

104:                                              ; preds = %103
  br label %105

105:                                              ; preds = %104
  %106 = load ptr, ptr %12, align 8
  %107 = getelementptr inbounds %struct.col_item_t, ptr %106, i32 0, i32 8
  %108 = load ptr, ptr %107, align 8
  %109 = load i64, ptr %9, align 8
  %110 = load i64, ptr %8, align 8
  %111 = load ptr, ptr %11, align 8
  %112 = call i64 @ws_label_strcpy(ptr noundef %108, i64 noundef %109, i64 noundef %110, ptr noundef %111, i32 noundef 0)
  store i64 %112, ptr %8, align 8
  br label %113

113:                                              ; preds = %105
  %114 = load i64, ptr %8, align 8
  %115 = load i64, ptr %9, align 8
  %116 = icmp ult i64 %114, %115
  br i1 %116, label %117, label %136

117:                                              ; preds = %113
  %118 = getelementptr inbounds [1 x %struct.__va_list_tag], ptr %7, i64 0, i64 0
  %119 = getelementptr inbounds %struct.__va_list_tag, ptr %118, i32 0, i32 0
  %120 = load i32, ptr %119, align 16
  %121 = icmp ule i32 %120, 40
  br i1 %121, label %122, label %127

122:                                              ; preds = %117
  %123 = getelementptr inbounds %struct.__va_list_tag, ptr %118, i32 0, i32 3
  %124 = load ptr, ptr %123, align 16
  %125 = getelementptr i8, ptr %124, i32 %120
  %126 = add i32 %120, 8
  store i32 %126, ptr %119, align 16
  br label %131

127:                                              ; preds = %117
  %128 = getelementptr inbounds %struct.__va_list_tag, ptr %118, i32 0, i32 2
  %129 = load ptr, ptr %128, align 8
  %130 = getelementptr i8, ptr %129, i32 8
  store ptr %130, ptr %128, align 8
  br label %131

131:                                              ; preds = %127, %122
  %132 = phi ptr [ %125, %122 ], [ %129, %127 ]
  %133 = load ptr, ptr %132, align 8
  store ptr %133, ptr %11, align 8
  %134 = inttoptr i64 -1 to ptr
  %135 = icmp ne ptr %133, %134
  br label %136

136:                                              ; preds = %131, %113
  %137 = phi i1 [ false, %113 ], [ %135, %131 ]
  br i1 %137, label %99, label %138, !llvm.loop !17

138:                                              ; preds = %136
  %139 = getelementptr inbounds [1 x %struct.__va_list_tag], ptr %7, i64 0, i64 0
  call void @llvm.va_end.p0(ptr %139)
  br label %140

140:                                              ; preds = %138, %50
  br label %141

141:                                              ; preds = %140
  %142 = load i32, ptr %10, align 4
  %143 = add i32 %142, 1
  store i32 %143, ptr %10, align 4
  br label %40, !llvm.loop !18

144:                                              ; preds = %95, %40, %26
  ret void
}