; Function Attrs: nounwind uwtable
define void @col_append_lstr(ptr noundef readonly %0, i32 noundef %1, ptr noundef %2, ...) local_unnamed_addr #0 {
  %4 = alloca [1 x %struct.__va_list_tag], align 16
  %5 = icmp eq ptr %0, null
  br i1 %5, label %col_get_writable.exit.thread, label %6

6:                                                ; preds = %3
  %7 = icmp eq i32 %1, -1
  %.phi.trans.insert.i = getelementptr inbounds nuw i8, ptr %0, i64 56
  %.pre.i = load i32, ptr %.phi.trans.insert.i, align 8
  br i1 %7, label %col_get_writable.exit, label %8

8:                                                ; preds = %6
  %9 = icmp eq i32 %.pre.i, 0
  br i1 %9, label %col_get_writable.exit.thread, label %10

10:                                               ; preds = %8
  %11 = getelementptr inbounds nuw i8, ptr %0, i64 24
  %12 = load ptr, ptr %11, align 8
  %13 = sext i32 %1 to i64
  %14 = getelementptr i32, ptr %12, i64 %13
  %15 = load i32, ptr %14, align 4
  %16 = icmp sgt i32 %15, -1
  br i1 %16, label %.preheader.i, label %col_get_writable.exit.thread

.preheader.i:                                     ; preds = %10
  %17 = getelementptr inbounds nuw i8, ptr %0, i64 32
  %18 = load ptr, ptr %17, align 8
  %19 = getelementptr i32, ptr %18, i64 %13
  %20 = load i32, ptr %19, align 4
  %.not22.i = icmp sgt i32 %15, %20
  br i1 %.not22.i, label %col_get_writable.exit.thread, label %.lr.ph.i

.lr.ph.i:                                         ; preds = %.preheader.i
  %21 = getelementptr inbounds nuw i8, ptr %0, i64 16
  %22 = load ptr, ptr %21, align 8
  br label %25

23:                                               ; preds = %25
  %24 = add i32 %.01723.i, 1
  %.not.i = icmp sgt i32 %24, %20
  br i1 %.not.i, label %col_get_writable.exit.thread, label %25, !llvm.loop !9

25:                                               ; preds = %23, %.lr.ph.i
  %.01723.i = phi i32 [ %15, %.lr.ph.i ], [ %24, %23 ]
  %26 = sext i32 %.01723.i to i64
  %27 = getelementptr %struct.col_item_t, ptr %22, i64 %26
  %28 = getelementptr inbounds nuw i8, ptr %27, i64 8
  %29 = load ptr, ptr %28, align 8
  %30 = getelementptr i32, ptr %29, i64 %13
  %31 = load i32, ptr %30, align 4
  %.not21.i = icmp eq i32 %31, 0
  br i1 %.not21.i, label %23, label %32

32:                                               ; preds = %25
  %33 = getelementptr inbounds nuw i8, ptr %27, i64 76
  %34 = load i32, ptr %33, align 4
  br label %col_get_writable.exit

col_get_writable.exit:                            ; preds = %6, %32
  %.0.i = phi i32 [ %34, %32 ], [ %.pre.i, %6 ]
  %.not = icmp eq i32 %.0.i, 0
  br i1 %.not, label %col_get_writable.exit.thread, label %35

35:                                               ; preds = %col_get_writable.exit
  %36 = getelementptr inbounds nuw i8, ptr %0, i64 24
  %37 = load ptr, ptr %36, align 8
  %38 = sext i32 %1 to i64
  %39 = getelementptr i32, ptr %37, i64 %38
  %40 = load i32, ptr %39, align 4
  %41 = icmp sgt i32 %40, -1
  br i1 %41, label %42, label %col_get_writable.exit.thread

42:                                               ; preds = %35
  %43 = icmp eq i32 %1, 25
  %. = select i1 %43, i64 4096, i64 2048
  %44 = getelementptr inbounds nuw i8, ptr %0, i64 32
  %45 = load ptr, ptr %44, align 8
  %46 = getelementptr i32, ptr %45, i64 %38
  %47 = load i32, ptr %46, align 4
  %.not4150 = icmp sgt i32 %40, %47
  br i1 %.not4150, label %col_get_writable.exit.thread, label %.lr.ph

.lr.ph:                                           ; preds = %42
  %48 = getelementptr inbounds nuw i8, ptr %0, i64 16
  %49 = getelementptr inbounds nuw i8, ptr %4, i64 8
  %50 = getelementptr inbounds nuw i8, ptr %4, i64 16
  br label %51

51:                                               ; preds = %.lr.ph, %91
  %52 = phi ptr [ %45, %.lr.ph ], [ %92, %91 ]
  %.03351 = phi i32 [ %40, %.lr.ph ], [ %93, %91 ]
  %53 = load ptr, ptr %48, align 8
  %54 = sext i32 %.03351 to i64
  %55 = getelementptr %struct.col_item_t, ptr %53, i64 %54
  %56 = getelementptr inbounds nuw i8, ptr %55, i64 8
  %57 = load ptr, ptr %56, align 8
  %58 = getelementptr i32, ptr %57, i64 %38
  %59 = load i32, ptr %58, align 4
  %.not42 = icmp eq i32 %59, 0
  br i1 %.not42, label %91, label %60

60:                                               ; preds = %51
  %61 = getelementptr inbounds nuw i8, ptr %55, i64 56
  %62 = load ptr, ptr %61, align 8
  %63 = getelementptr inbounds nuw i8, ptr %55, i64 64
  %64 = load ptr, ptr %63, align 8
  %.not43 = icmp eq ptr %62, %64
  br i1 %.not43, label %68, label %65

65:                                               ; preds = %60
  %66 = call i64 @g_strlcpy(ptr noundef %64, ptr noundef %62, i64 noundef %.) #16
  %67 = load ptr, ptr %63, align 8
  store ptr %67, ptr %61, align 8
  br label %68

68:                                               ; preds = %65, %60
  %69 = phi ptr [ %67, %65 ], [ %64, %60 ]
  %70 = call i64 @strlen(ptr noundef nonnull dereferenceable(1) %69) #18
  %.not44 = icmp ult i64 %70, %.
  br i1 %.not44, label %71, label %col_get_writable.exit.thread

71:                                               ; preds = %68
  call void @llvm.va_start.p0(ptr nonnull %4)
  br label %72

72:                                               ; preds = %88, %71
  %.032 = phi ptr [ %2, %71 ], [ %90, %88 ]
  %.0 = phi i64 [ %70, %71 ], [ %75, %88 ]
  %73 = icmp eq ptr %.032, null
  %spec.store.select = select i1 %73, ptr @.str.2, ptr %.032
  %74 = load ptr, ptr %63, align 8
  %75 = call i64 @ws_label_strcpy(ptr noundef %74, i64 noundef %., i64 noundef %.0, ptr noundef nonnull %spec.store.select, i32 noundef 0) #16
  %76 = icmp ult i64 %75, %.
  br i1 %76, label %77, label %.critedge

77:                                               ; preds = %72
  %78 = load i32, ptr %4, align 16
  %79 = icmp ult i32 %78, 41
  br i1 %79, label %80, label %85

80:                                               ; preds = %77
  %81 = load ptr, ptr %50, align 16
  %82 = zext nneg i32 %78 to i64
  %83 = getelementptr i8, ptr %81, i64 %82
  %84 = add nuw nsw i32 %78, 8
  store i32 %84, ptr %4, align 16
  br label %88

85:                                               ; preds = %77
  %86 = load ptr, ptr %49, align 8
  %87 = getelementptr i8, ptr %86, i64 8
  store ptr %87, ptr %49, align 8
  br label %88

88:                                               ; preds = %85, %80
  %89 = phi ptr [ %83, %80 ], [ %86, %85 ]
  %90 = load ptr, ptr %89, align 8
  %.not45 = icmp eq ptr %90, inttoptr (i64 -1 to ptr)
  br i1 %.not45, label %.critedge, label %72, !llvm.loop !17

.critedge:                                        ; preds = %72, %88
  call void @llvm.va_end.p0(ptr nonnull %4)
  %.pre = load ptr, ptr %44, align 8
  br label %91

91:                                               ; preds = %51, %.critedge
  %92 = phi ptr [ %52, %51 ], [ %.pre, %.critedge ]
  %93 = add i32 %.03351, 1
  %94 = getelementptr i32, ptr %92, i64 %38
  %95 = load i32, ptr %94, align 4
  %.not41 = icmp sgt i32 %93, %95
  br i1 %.not41, label %col_get_writable.exit.thread, label %51, !llvm.loop !18

col_get_writable.exit.thread:                     ; preds = %23, %91, %68, %42, %8, %.preheader.i, %10, %3, %col_get_writable.exit, %35
  ret void
}